target datalayout = "e-m:e-p270:32:32-p271:32:32-p272:64:64-i64:64-i128:128-f80:128-n8:16:32:64-S128"
target triple = "x86_64-pc-linux-gnu"

%struct.Jf_Par_t_ = type { i32, i32, i32, i32, i32, i32, i32, i32, i32, i32, i32, i32, i32, i32, i32, i32, i32, i32, i32, i32, i32, i32, i32, i32, i32, i32, i32, i32, i32, i32, i32, i32, i32, i32, i32, i32, i32, i32, i32, i32, i64, i64, i64, i64, i64, i64, i64, i64, i32, float, float, float, float, ptr, ptr }

; Function Attrs: nounwind uwtable
define void @Mf_ManSetDefaultPars(ptr noundef %0) #0 {
  %2 = alloca ptr, align 8
  store ptr %0, ptr %2, align 8, !tbaa !216
  %3 = load ptr, ptr %2, align 8, !tbaa !216
  call void @llvm.memset.p0.i64(ptr align 8 %3, i8 0, i64 264, i1 false)
  %4 = load ptr, ptr %2, align 8, !tbaa !216
  %5 = getelementptr inbounds nuw %struct.Jf_Par_t_, ptr %4, i32 0, i32 0
  store i32 6, ptr %5, align 8, !tbaa !69
  %6 = load ptr, ptr %2, align 8, !tbaa !216
  %7 = getelementptr inbounds nuw %struct.Jf_Par_t_, ptr %6, i32 0, i32 1
  store i32 8, ptr %7, align 4, !tbaa !128
  %8 = load ptr, ptr %2, align 8, !tbaa !216
  %9 = getelementptr inbounds nuw %struct.Jf_Par_t_, ptr %8, i32 0, i32 2
  store i32 0, ptr %9, align 8, !tbaa !231
  %10 = load ptr, ptr %2, align 8, !tbaa !216
  %11 = getelementptr inbounds nuw %struct.Jf_Par_t_, ptr %10, i32 0, i32 3
  store i32 2, ptr %11, align 4, !tbaa !232
  %12 = load ptr, ptr %2, align 8, !tbaa !216
  %13 = getelementptr inbounds nuw %struct.Jf_Par_t_, ptr %12, i32 0, i32 4
  store i32 1, ptr %13, align 8, !tbaa !233
  %14 = load ptr, ptr %2, align 8, !tbaa !216
  %15 = getelementptr inbounds nuw %struct.Jf_Par_t_, ptr %14, i32 0, i32 5
  store i32 0, ptr %15, align 4, !tbaa !175
  %16 = load ptr, ptr %2, align 8, !tbaa !216
  %17 = getelementptr inbounds nuw %struct.Jf_Par_t_, ptr %16, i32 0, i32 6
  store i32 3, ptr %17, align 8, !tbaa !234
  %18 = load ptr, ptr %2, align 8, !tbaa !216
  %19 = getelementptr inbounds nuw %struct.Jf_Par_t_, ptr %18, i32 0, i32 7
  store i32 1, ptr %19, align 4, !tbaa !189
  %20 = load ptr, ptr %2, align 8, !tbaa !216
  %21 = getelementptr inbounds nuw %struct.Jf_Par_t_, ptr %20, i32 0, i32 9
  store i32 5, ptr %21, align 4, !tbaa !235
  %22 = load ptr, ptr %2, align 8, !tbaa !216
  %23 = getelementptr inbounds nuw %struct.Jf_Par_t_, ptr %22, i32 0, i32 13
  store i32 -1, ptr %23, align 4, !tbaa !174
  %24 = load ptr, ptr %2, align 8, !tbaa !216
  %25 = getelementptr inbounds nuw %struct.Jf_Par_t_, ptr %24, i32 0, i32 14
  store i32 0, ptr %25, align 8, !tbaa !236
  %26 = load ptr, ptr %2, align 8, !tbaa !216
  %27 = getelementptr inbounds nuw %struct.Jf_Par_t_, ptr %26, i32 0, i32 18
  store i32 1, ptr %27, align 8, !tbaa !188
  %28 = load ptr, ptr %2, align 8, !tbaa !216
  %29 = getelementptr inbounds nuw %struct.Jf_Par_t_, ptr %28, i32 0, i32 21
  store i32 1, ptr %29, align 4, !tbaa !237
  %30 = load ptr, ptr %2, align 8, !tbaa !216
  %31 = getelementptr inbounds nuw %struct.Jf_Par_t_, ptr %30, i32 0, i32 22
  store i32 0, ptr %31, align 8, !tbaa !142
  %32 = load ptr, ptr %2, align 8, !tbaa !216
  %33 = getelementptr inbounds nuw %struct.Jf_Par_t_, ptr %32, i32 0, i32 24
  store i32 0, ptr %33, align 8, !tbaa !160
  %34 = load ptr, ptr %2, align 8, !tbaa !216
  %35 = getelementptr inbounds nuw %struct.Jf_Par_t_, ptr %34, i32 0, i32 25
  store i32 0, ptr %35, align 4, !tbaa !161
  %36 = load ptr, ptr %2, align 8, !tbaa !216
  %37 = getelementptr inbounds nuw %struct.Jf_Par_t_, ptr %36, i32 0, i32 29
  store i32 0, ptr %37, align 4, !tbaa !238
  %38 = load ptr, ptr %2, align 8, !tbaa !216
  %39 = getelementptr inbounds nuw %struct.Jf_Par_t_, ptr %38, i32 0, i32 34
  store i32 0, ptr %39, align 8, !tbaa !239
  %40 = load ptr, ptr %2, align 8, !tbaa !216
  %41 = getelementptr inbounds nuw %struct.Jf_Par_t_, ptr %40, i32 0, i32 35
  store i32 0, ptr %41, align 4, !tbaa !240
  %42 = load ptr, ptr %2, align 8, !tbaa !216
  %43 = getelementptr inbounds nuw %struct.Jf_Par_t_, ptr %42, i32 0, i32 36
  store i32 10, ptr %43, align 8, !tbaa !241
  %44 = load ptr, ptr %2, align 8, !tbaa !216
  %45 = getelementptr inbounds nuw %struct.Jf_Par_t_, ptr %44, i32 0, i32 37
  store i32 16, ptr %45, align 4, !tbaa !242
  ret void
}