; Function Attrs: mustprogress nofree norecurse nosync nounwind willreturn memory(argmem: write) uwtable
define void @Mf_ManSetDefaultPars(ptr noundef writeonly captures(none) initializes((0, 264)) %0) local_unnamed_addr #12 {
  %2 = getelementptr inbounds nuw i8, ptr %0, i64 32
  tail call void @llvm.memset.p0.i64(ptr noundef nonnull align 8 dereferenceable(264) %2, i8 0, i64 232, i1 false)
  store i32 6, ptr %0, align 8, !tbaa !87
  %3 = getelementptr inbounds nuw i8, ptr %0, i64 4
  store i32 8, ptr %3, align 4, !tbaa !135
  %4 = getelementptr inbounds nuw i8, ptr %0, i64 8
  store i32 0, ptr %4, align 8, !tbaa !258
  %5 = getelementptr inbounds nuw i8, ptr %0, i64 12
  store i32 2, ptr %5, align 4, !tbaa !259
  %6 = getelementptr inbounds nuw i8, ptr %0, i64 16
  store i32 1, ptr %6, align 8, !tbaa !260
  %7 = getelementptr inbounds nuw i8, ptr %0, i64 20
  store i32 0, ptr %7, align 4, !tbaa !207
  %8 = getelementptr inbounds nuw i8, ptr %0, i64 24
  store i32 3, ptr %8, align 8, !tbaa !261
  %9 = getelementptr inbounds nuw i8, ptr %0, i64 28
  store i32 1, ptr %9, align 4, !tbaa !154
  %10 = getelementptr inbounds nuw i8, ptr %0, i64 36
  store i32 5, ptr %10, align 4, !tbaa !262
  %11 = getelementptr inbounds nuw i8, ptr %0, i64 52
  store i32 -1, ptr %11, align 4, !tbaa !206
  %12 = getelementptr inbounds nuw i8, ptr %0, i64 72
  store i32 1, ptr %12, align 8, !tbaa !153
  %13 = getelementptr inbounds nuw i8, ptr %0, i64 84
  store i32 1, ptr %13, align 4, !tbaa !263
  %14 = getelementptr inbounds nuw i8, ptr %0, i64 96
  store i32 0, ptr %14, align 8, !tbaa !151
  %15 = getelementptr inbounds nuw i8, ptr %0, i64 116
  store i32 0, ptr %15, align 4, !tbaa !264
  %16 = getelementptr inbounds nuw i8, ptr %0, i64 140
  store i32 0, ptr %16, align 4, !tbaa !265
  %17 = getelementptr inbounds nuw i8, ptr %0, i64 144
  store i32 10, ptr %17, align 8, !tbaa !266
  %18 = getelementptr inbounds nuw i8, ptr %0, i64 148
  store i32 16, ptr %18, align 4, !tbaa !267
  ret void
}